target datalayout = "e-m:e-p270:32:32-p271:32:32-p272:64:64-i64:64-i128:128-f80:128-n8:16:32:64-S128"
target triple = "x86_64-pc-linux-gnu"

%struct.IDAMemRec = type { ptr, double, ptr, ptr, i32, double, double, ptr, i32, i32, ptr, ptr, i32, i32, [6 x ptr], [6 x double], [6 x double], [6 x double], [6 x double], [6 x double], ptr, ptr, ptr, ptr, ptr, ptr, ptr, ptr, ptr, ptr, ptr, ptr, ptr, ptr, ptr, ptr, ptr, double, ptr, ptr, i32, i32, i32, i32, i32, i32, i32, i32, double, double, double, i32, double, i32, i32, i32, i32, i32, double, double, double, double, double, double, double, double, double, double, double, double, double, double, double, double, i32, i32, i32, i32, i64, double, double, double, double, double, double, double, double, double, i64, i64, i64, i64, i64, i64, i64, i64, i64, i64, i64, double, i32, i32, i32, i32, i32, ptr, i32, ptr, ptr, ptr, ptr, ptr, ptr, ptr, double, i32, ptr, i32, ptr, ptr, double, double, double, ptr, ptr, ptr, double, double, i32, i32, i64, ptr, i32, [6 x double], [5 x double], [6 x ptr], [6 x ptr] }

@.str = private unnamed_addr constant [109 x i8] c"generated/home/dtcxzyw/WorkSpace/Projects/compilers/llvm-opt-benchmark/bench/sundials/sundials/src/ida/ida.c\00", align 1
@.str.3 = private unnamed_addr constant [24 x i8] c"ida_mem = NULL illegal.\00", align 1
@.str.9 = private unnamed_addr constant [34 x i8] c"Attempt to call before IDAMalloc.\00", align 1
@__func__.IDASStolerances = private unnamed_addr constant [16 x i8] c"IDASStolerances\00", align 1
@.str.10 = private unnamed_addr constant [18 x i8] c"rtol < 0 illegal.\00", align 1
@.str.11 = private unnamed_addr constant [35 x i8] c"Some atol component < 0.0 illegal.\00", align 1

; Function Attrs: nounwind uwtable
define i32 @IDASStolerances(ptr noundef %0, double noundef %1, double noundef %2) #0 {
  %4 = alloca i32, align 4
  %5 = alloca ptr, align 8
  %6 = alloca double, align 8
  %7 = alloca double, align 8
  %8 = alloca ptr, align 8
  %9 = alloca i32, align 4
  store ptr %0, ptr %5, align 8, !tbaa !73
  store double %1, ptr %6, align 8, !tbaa !74
  store double %2, ptr %7, align 8, !tbaa !74
  call void @llvm.lifetime.start.p0(i64 8, ptr %8) #10
  %10 = load ptr, ptr %5, align 8, !tbaa !73
  %11 = icmp eq ptr %10, null
  br i1 %11, label %12, label %13

12:                                               ; preds = %3
  call void (ptr, i32, i32, ptr, ptr, ptr, ...) @IDAProcessError(ptr noundef null, i32 noundef -20, i32 noundef 669, ptr noundef @__func__.IDASStolerances, ptr noundef @.str, ptr noundef @.str.3)
  store i32 -20, ptr %4, align 4
  store i32 1, ptr %9, align 4
  br label %51

13:                                               ; preds = %3
  %14 = load ptr, ptr %5, align 8, !tbaa !73
  store ptr %14, ptr %8, align 8, !tbaa !8
  %15 = load ptr, ptr %8, align 8, !tbaa !8
  %16 = getelementptr inbounds nuw %struct.IDAMemRec, ptr %15, i32 0, i32 104
  %17 = load i32, ptr %16, align 8, !tbaa !61
  %18 = icmp eq i32 %17, 0
  br i1 %18, label %19, label %21

19:                                               ; preds = %13
  %20 = load ptr, ptr %8, align 8, !tbaa !8
  call void (ptr, i32, i32, ptr, ptr, ptr, ...) @IDAProcessError(ptr noundef %20, i32 noundef -23, i32 noundef 676, ptr noundef @__func__.IDASStolerances, ptr noundef @.str, ptr noundef @.str.9)
  store i32 -23, ptr %4, align 4
  store i32 1, ptr %9, align 4
  br label %51

21:                                               ; preds = %13
  %22 = load double, ptr %6, align 8, !tbaa !74
  %23 = fcmp olt double %22, 0.000000e+00
  br i1 %23, label %24, label %26

24:                                               ; preds = %21
  %25 = load ptr, ptr %8, align 8, !tbaa !8
  call void (ptr, i32, i32, ptr, ptr, ptr, ...) @IDAProcessError(ptr noundef %25, i32 noundef -22, i32 noundef 685, ptr noundef @__func__.IDASStolerances, ptr noundef @.str, ptr noundef @.str.10)
  store i32 -22, ptr %4, align 4
  store i32 1, ptr %9, align 4
  br label %51

26:                                               ; preds = %21
  %27 = load double, ptr %7, align 8, !tbaa !74
  %28 = fcmp olt double %27, 0.000000e+00
  br i1 %28, label %29, label %31

29:                                               ; preds = %26
  %30 = load ptr, ptr %8, align 8, !tbaa !8
  call void (ptr, i32, i32, ptr, ptr, ptr, ...) @IDAProcessError(ptr noundef %30, i32 noundef -22, i32 noundef 692, ptr noundef @__func__.IDASStolerances, ptr noundef @.str, ptr noundef @.str.11)
  store i32 -22, ptr %4, align 4
  store i32 1, ptr %9, align 4
  br label %51

31:                                               ; preds = %26
  %32 = load double, ptr %6, align 8, !tbaa !74
  %33 = load ptr, ptr %8, align 8, !tbaa !8
  %34 = getelementptr inbounds nuw %struct.IDAMemRec, ptr %33, i32 0, i32 5
  store double %32, ptr %34, align 8, !tbaa !135
  %35 = load double, ptr %7, align 8, !tbaa !74
  %36 = load ptr, ptr %8, align 8, !tbaa !8
  %37 = getelementptr inbounds nuw %struct.IDAMemRec, ptr %36, i32 0, i32 6
  store double %35, ptr %37, align 8, !tbaa !136
  %38 = load double, ptr %7, align 8, !tbaa !74
  %39 = fcmp oeq double %38, 0.000000e+00
  %40 = zext i1 %39 to i32
  %41 = load ptr, ptr %8, align 8, !tbaa !8
  %42 = getelementptr inbounds nuw %struct.IDAMemRec, ptr %41, i32 0, i32 8
  store i32 %40, ptr %42, align 8, !tbaa !23
  %43 = load ptr, ptr %8, align 8, !tbaa !8
  %44 = getelementptr inbounds nuw %struct.IDAMemRec, ptr %43, i32 0, i32 4
  store i32 1, ptr %44, align 8, !tbaa !22
  %45 = load ptr, ptr %8, align 8, !tbaa !8
  %46 = getelementptr inbounds nuw %struct.IDAMemRec, ptr %45, i32 0, i32 9
  store i32 0, ptr %46, align 4, !tbaa !24
  %47 = load ptr, ptr %8, align 8, !tbaa !8
  %48 = getelementptr inbounds nuw %struct.IDAMemRec, ptr %47, i32 0, i32 10
  store ptr @IDAEwtSet, ptr %48, align 8, !tbaa !25
  %49 = load ptr, ptr %8, align 8, !tbaa !8
  %50 = getelementptr inbounds nuw %struct.IDAMemRec, ptr %49, i32 0, i32 11
  store ptr null, ptr %50, align 8, !tbaa !26
  store i32 0, ptr %4, align 4
  store i32 1, ptr %9, align 4
  br label %51

51:                                               ; preds = %31, %29, %24, %19, %12
  call void @llvm.lifetime.end.p0(i64 8, ptr %8) #10
  %52 = load i32, ptr %4, align 4
  ret i32 %52
}